target datalayout = "e-m:e-p270:32:32-p271:32:32-p272:64:64-i64:64-i128:128-f80:128-n8:16:32:64-S128"
target triple = "x86_64-pc-linux-gnu"

%"class.std::basic_ostream" = type { ptr, %"class.std::basic_ios" }
%"class.std::basic_ios" = type { %"class.std::ios_base", ptr, i8, i8, ptr, ptr, ptr, ptr }
%"class.std::ios_base" = type { ptr, i64, i64, i32, i32, i32, ptr, %"struct.std::ios_base::_Words", [8 x %"struct.std::ios_base::_Words"], i32, ptr, %"class.std::locale" }
%"struct.std::ios_base::_Words" = type { ptr, i64 }
%"class.std::locale" = type { ptr }
%"class.pxrInternal_v0_24__pxrReserved__::TfCallContext" = type <{ ptr, ptr, i64, ptr, i8, [7 x i8] }>
%"class.pxrInternal_v0_24__pxrReserved__::TfErrorMark" = type { i64 }
%"class.pxrInternal_v0_24__pxrReserved__::TfDiagnosticMgr" = type <{ ptr, %"class.pxrInternal_v0_24__pxrReserved__::TfWeakBase", %"class.tbb::detail::d1::enumerable_thread_specific", %"class.std::vector.22", %"class.tbb::detail::d1::spin_rw_mutex", %"struct.std::atomic.14", %"class.tbb::detail::d1::enumerable_thread_specific.29", %"class.tbb::detail::d1::enumerable_thread_specific.38", %"class.tbb::detail::d1::enumerable_thread_specific.47", i8, [7 x i8] }>
%"class.pxrInternal_v0_24__pxrReserved__::TfWeakBase" = type { %"struct.std::atomic.10" }
%"struct.std::atomic.10" = type { %"struct.std::__atomic_base.11" }
%"struct.std::__atomic_base.11" = type { ptr }
%"class.tbb::detail::d1::enumerable_thread_specific" = type { %"class.tbb::detail::d1::ets_base", ptr, %"class.tbb::detail::d1::concurrent_vector" }
%"class.tbb::detail::d1::ets_base" = type { ptr, %"struct.std::atomic.12", %"struct.std::atomic.14" }
%"struct.std::atomic.12" = type { %"struct.std::__atomic_base.13" }
%"struct.std::__atomic_base.13" = type { ptr }
%"class.tbb::detail::d1::concurrent_vector" = type { %"class.tbb::detail::d1::segment_table.base", [7 x i8] }
%"class.tbb::detail::d1::segment_table.base" = type <{ ptr, [8 x i8], %"struct.std::atomic.16", [3 x %"struct.std::atomic.18"], %"struct.std::atomic.14", %"struct.std::atomic.14", %"struct.std::atomic.20" }>
%"struct.std::atomic.16" = type { %"struct.std::__atomic_base.17" }
%"struct.std::__atomic_base.17" = type { ptr }
%"struct.std::atomic.18" = type { %"struct.std::__atomic_base.19" }
%"struct.std::__atomic_base.19" = type { ptr }
%"struct.std::atomic.20" = type { %"struct.std::__atomic_base.21" }
%"struct.std::__atomic_base.21" = type { i8 }
%"class.std::vector.22" = type { %"struct.std::_Vector_base.23" }
%"struct.std::_Vector_base.23" = type { %"struct.std::_Vector_base<pxrInternal_v0_24__pxrReserved__::TfDiagnosticMgr::Delegate *, std::allocator<pxrInternal_v0_24__pxrReserved__::TfDiagnosticMgr::Delegate *>>::_Vector_impl" }
%"struct.std::_Vector_base<pxrInternal_v0_24__pxrReserved__::TfDiagnosticMgr::Delegate *, std::allocator<pxrInternal_v0_24__pxrReserved__::TfDiagnosticMgr::Delegate *>>::_Vector_impl" = type { %"struct.std::_Vector_base<pxrInternal_v0_24__pxrReserved__::TfDiagnosticMgr::Delegate *, std::allocator<pxrInternal_v0_24__pxrReserved__::TfDiagnosticMgr::Delegate *>>::_Vector_impl_data" }
%"struct.std::_Vector_base<pxrInternal_v0_24__pxrReserved__::TfDiagnosticMgr::Delegate *, std::allocator<pxrInternal_v0_24__pxrReserved__::TfDiagnosticMgr::Delegate *>>::_Vector_impl_data" = type { ptr, ptr, ptr }
%"class.tbb::detail::d1::spin_rw_mutex" = type { %"struct.std::atomic.27" }
%"struct.std::atomic.27" = type { %"struct.std::__atomic_base.28" }
%"struct.std::__atomic_base.28" = type { i64 }
%"struct.std::atomic.14" = type { %"struct.std::__atomic_base.15" }
%"struct.std::__atomic_base.15" = type { i64 }
%"class.tbb::detail::d1::enumerable_thread_specific.29" = type { %"class.tbb::detail::d1::ets_base", ptr, %"class.tbb::detail::d1::concurrent_vector.30" }
%"class.tbb::detail::d1::concurrent_vector.30" = type { %"class.tbb::detail::d1::segment_table.base.36", [7 x i8] }
%"class.tbb::detail::d1::segment_table.base.36" = type <{ ptr, [8 x i8], %"struct.std::atomic.32", [3 x %"struct.std::atomic.34"], %"struct.std::atomic.14", %"struct.std::atomic.14", %"struct.std::atomic.20" }>
%"struct.std::atomic.32" = type { %"struct.std::__atomic_base.33" }
%"struct.std::__atomic_base.33" = type { ptr }
%"struct.std::atomic.34" = type { %"struct.std::__atomic_base.35" }
%"struct.std::__atomic_base.35" = type { ptr }
%"class.tbb::detail::d1::enumerable_thread_specific.38" = type { %"class.tbb::detail::d1::ets_base", ptr, %"class.tbb::detail::d1::concurrent_vector.39" }
%"class.tbb::detail::d1::concurrent_vector.39" = type { %"class.tbb::detail::d1::segment_table.base.45", [7 x i8] }
%"class.tbb::detail::d1::segment_table.base.45" = type <{ ptr, [8 x i8], %"struct.std::atomic.41", [3 x %"struct.std::atomic.43"], %"struct.std::atomic.14", %"struct.std::atomic.14", %"struct.std::atomic.20" }>
%"struct.std::atomic.41" = type { %"struct.std::__atomic_base.42" }
%"struct.std::__atomic_base.42" = type { ptr }
%"struct.std::atomic.43" = type { %"struct.std::__atomic_base.44" }
%"struct.std::__atomic_base.44" = type { ptr }
%"class.tbb::detail::d1::enumerable_thread_specific.47" = type { %"class.tbb::detail::d1::ets_base.base", ptr, %"class.tbb::detail::d1::concurrent_vector.49" }
%"class.tbb::detail::d1::ets_base.base" = type <{ %"class.tbb::detail::d1::ets_base", i32 }>
%"class.tbb::detail::d1::concurrent_vector.49" = type { %"class.tbb::detail::d1::segment_table.base.55", [7 x i8] }
%"class.tbb::detail::d1::segment_table.base.55" = type <{ ptr, [8 x i8], %"struct.std::atomic.51", [3 x %"struct.std::atomic.53"], %"struct.std::atomic.14", %"struct.std::atomic.14", %"struct.std::atomic.20" }>
%"struct.std::atomic.51" = type { %"struct.std::__atomic_base.52" }
%"struct.std::__atomic_base.52" = type { ptr }
%"struct.std::atomic.53" = type { %"struct.std::__atomic_base.54" }
%"struct.std::__atomic_base.54" = type { ptr }

@.str = private unnamed_addr constant [137 x i8] c"generated/home/dtcxzyw/WorkSpace/Projects/compilers/llvm-opt-benchmark/bench/openusd/OpenUSD/pxr/imaging/hd/testenv/testHdBufferSpec.cpp\00", align 1
@__func__.main = private unnamed_addr constant [5 x i8] c"main\00", align 1
@__PRETTY_FUNCTION__.main = private unnamed_addr constant [11 x i8] c"int main()\00", align 1
@.str.14 = private unnamed_addr constant [15 x i8] c"mark.IsClean()\00", align 1
@_ZSt4cout = external global %"class.std::basic_ostream", align 8
@.str.15 = private unnamed_addr constant [3 x i8] c"OK\00", align 1
@.str.16 = private unnamed_addr constant [7 x i8] c"FAILED\00", align 1

; Function Attrs: noreturn nounwind uwtable
define linkonce_odr hidden void @__clang_call_terminate(ptr noundef %0) #8 comdat {
  %2 = call ptr @__cxa_begin_catch(ptr %0) #3
  call void @_ZSt9terminatev() #12
  unreachable
}

; Function Attrs: mustprogress nounwind uwtable
define linkonce_odr dso_local noundef i32 @_ZStanSt12memory_orderSt23__memory_order_modifier(i32 noundef %0, i32 noundef %1) #5 comdat {
  %3 = alloca i32, align 4
  %4 = alloca i32, align 4
  store i32 %0, ptr %3, align 4
  store i32 %1, ptr %4, align 4
  %5 = load i32, ptr %3, align 4
  %6 = load i32, ptr %4, align 4
  %7 = and i32 %5, %6
  ret i32 %7
}

; Function Attrs: mustprogress nounwind uwtable
define linkonce_odr dso_local noundef i64 @_ZNKSt13__atomic_baseImEcvmEv(ptr noundef nonnull align 8 dereferenceable(8) %0) #5 comdat align 2 personality ptr @__gxx_personality_v0 {
  %2 = alloca ptr, align 8
  %3 = alloca i32, align 4
  %4 = alloca i32, align 4
  %5 = alloca i64, align 8
  %6 = alloca ptr, align 8
  store ptr %0, ptr %6, align 8
  %7 = load ptr, ptr %6, align 8
  store ptr %7, ptr %2, align 8
  store i32 5, ptr %3, align 4
  %8 = load ptr, ptr %2, align 8
  %9 = load i32, ptr %3, align 4
  %10 = invoke noundef i32 @_ZStanSt12memory_orderSt23__memory_order_modifier(i32 noundef %9, i32 noundef 65535)
          to label %11 unwind label %19

11:                                               ; preds = %1
  store i32 %10, ptr %4, align 4
  %12 = load i32, ptr %3, align 4
  switch i32 %12, label %13 [
    i32 1, label %15
    i32 2, label %15
    i32 5, label %17
  ]

13:                                               ; preds = %11
  %14 = load atomic i64, ptr %8 monotonic, align 8
  store i64 %14, ptr %5, align 8
  br label %22

15:                                               ; preds = %11, %11
  %16 = load atomic i64, ptr %8 acquire, align 8
  store i64 %16, ptr %5, align 8
  br label %22

17:                                               ; preds = %11
  %18 = load atomic i64, ptr %8 seq_cst, align 8
  store i64 %18, ptr %5, align 8
  br label %22

19:                                               ; preds = %1
  %20 = landingpad { ptr, i32 }
          catch ptr null
  %21 = extractvalue { ptr, i32 } %20, 0
  call void @__clang_call_terminate(ptr %21) #12
  unreachable

22:                                               ; preds = %17, %15, %13
  %23 = load i64, ptr %5, align 8
  ret i64 %23
}

; Function Attrs: mustprogress uwtable
define linkonce_odr dso_local noundef nonnull align 8 dereferenceable(481) ptr @_ZN32pxrInternal_v0_24__pxrReserved__15TfDiagnosticMgr11GetInstanceEv() #4 comdat align 2 {
  %1 = call noundef nonnull align 8 dereferenceable(481) ptr @_ZN32pxrInternal_v0_24__pxrReserved__11TfSingletonINS_15TfDiagnosticMgrEE11GetInstanceEv()
  ret ptr %1
}

; Function Attrs: mustprogress nounwind uwtable
define linkonce_odr dso_local noundef ptr @_ZN32pxrInternal_v0_24__pxrReserved__21Tf_VerifyStringFormatEv() #5 comdat {
  ret ptr null
}

; Function Attrs: mustprogress nounwind uwtable
define linkonce_odr dso_local void @_ZN32pxrInternal_v0_24__pxrReserved__13TfCallContextC2EPKcS2_mS2_(ptr noundef nonnull align 8 dereferenceable(33) %0, ptr noundef %1, ptr noundef %2, i64 noundef %3, ptr noundef %4) unnamed_addr #5 comdat align 2 {
  %6 = alloca ptr, align 8
  %7 = alloca ptr, align 8
  %8 = alloca ptr, align 8
  %9 = alloca i64, align 8
  %10 = alloca ptr, align 8
  store ptr %0, ptr %6, align 8
  store ptr %1, ptr %7, align 8
  store ptr %2, ptr %8, align 8
  store i64 %3, ptr %9, align 8
  store ptr %4, ptr %10, align 8
  %11 = load ptr, ptr %6, align 8
  %12 = getelementptr inbounds nuw %"class.pxrInternal_v0_24__pxrReserved__::TfCallContext", ptr %11, i32 0, i32 0
  %13 = load ptr, ptr %7, align 8
  store ptr %13, ptr %12, align 8
  %14 = getelementptr inbounds nuw %"class.pxrInternal_v0_24__pxrReserved__::TfCallContext", ptr %11, i32 0, i32 1
  %15 = load ptr, ptr %8, align 8
  store ptr %15, ptr %14, align 8
  %16 = getelementptr inbounds nuw %"class.pxrInternal_v0_24__pxrReserved__::TfCallContext", ptr %11, i32 0, i32 2
  %17 = load i64, ptr %9, align 8
  store i64 %17, ptr %16, align 8
  %18 = getelementptr inbounds nuw %"class.pxrInternal_v0_24__pxrReserved__::TfCallContext", ptr %11, i32 0, i32 3
  %19 = load ptr, ptr %10, align 8
  store ptr %19, ptr %18, align 8
  %20 = getelementptr inbounds nuw %"class.pxrInternal_v0_24__pxrReserved__::TfCallContext", ptr %11, i32 0, i32 4
  store i8 0, ptr %20, align 8
  ret void
}

; Function Attrs: mustprogress uwtable
define linkonce_odr dso_local noundef zeroext i1 @_ZNK32pxrInternal_v0_24__pxrReserved__11TfErrorMark7IsCleanEv(ptr noundef nonnull align 8 dereferenceable(8) %0) #4 comdat align 2 {
  %2 = alloca ptr, align 8
  %3 = alloca ptr, align 8
  store ptr %0, ptr %2, align 8
  %4 = load ptr, ptr %2, align 8
  %5 = call noundef nonnull align 8 dereferenceable(481) ptr @_ZN32pxrInternal_v0_24__pxrReserved__15TfDiagnosticMgr11GetInstanceEv()
  store ptr %5, ptr %3, align 8
  %6 = getelementptr inbounds nuw %"class.pxrInternal_v0_24__pxrReserved__::TfErrorMark", ptr %4, i32 0, i32 0
  %7 = load i64, ptr %6, align 8
  %8 = load ptr, ptr %3, align 8
  %9 = getelementptr inbounds nuw %"class.pxrInternal_v0_24__pxrReserved__::TfDiagnosticMgr", ptr %8, i32 0, i32 5
  %10 = call noundef i64 @_ZNKSt13__atomic_baseImEcvmEv(ptr noundef nonnull align 8 dereferenceable(8) %9) #3
  %11 = icmp uge i64 %7, %10
  br i1 %11, label %15, label %12

12:                                               ; preds = %1
  %13 = load ptr, ptr %3, align 8
  %14 = call noundef zeroext i1 @_ZNK32pxrInternal_v0_24__pxrReserved__11TfErrorMark12_IsCleanImplERNS_15TfDiagnosticMgrE(ptr noundef nonnull align 8 dereferenceable(8) %4, ptr noundef nonnull align 8 dereferenceable(481) %13)
  br label %15

15:                                               ; preds = %12, %1
  %16 = phi i1 [ true, %1 ], [ %14, %12 ]
  ret i1 %16
}

; Function Attrs: mustprogress norecurse uwtable
define dso_local noundef i32 @main() #6 personality ptr @__gxx_personality_v0 {
  %1 = alloca i32, align 4
  %2 = alloca %"class.pxrInternal_v0_24__pxrReserved__::TfErrorMark", align 8
  %3 = alloca ptr, align 8
  %4 = alloca i32, align 4
  %5 = alloca %"class.pxrInternal_v0_24__pxrReserved__::TfCallContext", align 8
  %6 = alloca i32, align 4
  store i32 0, ptr %1, align 4
  call void @_ZN32pxrInternal_v0_24__pxrReserved__11TfErrorMarkC1Ev(ptr noundef nonnull align 8 dereferenceable(8) %2)
  invoke void @_Z14BufferSpecTestv()
          to label %7 unwind label %25

7:                                                ; preds = %0
  %8 = invoke noundef zeroext i1 @_ZNK32pxrInternal_v0_24__pxrReserved__11TfErrorMark7IsCleanEv(ptr noundef nonnull align 8 dereferenceable(8) %2)
          to label %9 unwind label %25

9:                                                ; preds = %7
  br i1 %8, label %10, label %11

10:                                               ; preds = %9
  br label %17

11:                                               ; preds = %9
  invoke void @_ZN32pxrInternal_v0_24__pxrReserved__13TfCallContextC2EPKcS2_mS2_(ptr noundef nonnull align 8 dereferenceable(33) %5, ptr noundef @.str, ptr noundef @__func__.main, i64 noundef 90, ptr noundef @__PRETTY_FUNCTION__.main)
          to label %12 unwind label %25

12:                                               ; preds = %11
  %13 = invoke noundef ptr @_ZN32pxrInternal_v0_24__pxrReserved__21Tf_VerifyStringFormatEv()
          to label %14 unwind label %25

14:                                               ; preds = %12
  %15 = invoke noundef zeroext i1 @_ZN32pxrInternal_v0_24__pxrReserved__21Tf_FailedVerifyHelperERKNS_13TfCallContextEPKcS4_(ptr noundef nonnull align 8 dereferenceable(33) %5, ptr noundef @.str.14, ptr noundef %13)
          to label %16 unwind label %25

16:                                               ; preds = %14
  br label %17

17:                                               ; preds = %16, %10
  %18 = invoke noundef zeroext i1 @_ZNK32pxrInternal_v0_24__pxrReserved__11TfErrorMark7IsCleanEv(ptr noundef nonnull align 8 dereferenceable(8) %2)
          to label %19 unwind label %25

19:                                               ; preds = %17
  br i1 %18, label %20, label %29

20:                                               ; preds = %19
  %21 = invoke noundef nonnull align 8 dereferenceable(8) ptr @_ZStlsISt11char_traitsIcEERSt13basic_ostreamIcT_ES5_PKc(ptr noundef nonnull align 8 dereferenceable(8) @_ZSt4cout, ptr noundef @.str.15)
          to label %22 unwind label %25

22:                                               ; preds = %20
  %23 = invoke noundef nonnull align 8 dereferenceable(8) ptr @_ZNSolsEPFRSoS_E(ptr noundef nonnull align 8 dereferenceable(8) %21, ptr noundef @_ZSt4endlIcSt11char_traitsIcEERSt13basic_ostreamIT_T0_ES6_)
          to label %24 unwind label %25

24:                                               ; preds = %22
  store i32 0, ptr %1, align 4
  store i32 1, ptr %6, align 4
  br label %34

25:                                               ; preds = %31, %29, %22, %20, %17, %14, %12, %11, %7, %0
  %26 = landingpad { ptr, i32 }
          cleanup
  %27 = extractvalue { ptr, i32 } %26, 0
  store ptr %27, ptr %3, align 8
  %28 = extractvalue { ptr, i32 } %26, 1
  store i32 %28, ptr %4, align 4
  call void @_ZN32pxrInternal_v0_24__pxrReserved__11TfErrorMarkD1Ev(ptr noundef nonnull align 8 dereferenceable(8) %2) #3
  br label %36

29:                                               ; preds = %19
  %30 = invoke noundef nonnull align 8 dereferenceable(8) ptr @_ZStlsISt11char_traitsIcEERSt13basic_ostreamIcT_ES5_PKc(ptr noundef nonnull align 8 dereferenceable(8) @_ZSt4cout, ptr noundef @.str.16)
          to label %31 unwind label %25

31:                                               ; preds = %29
  %32 = invoke noundef nonnull align 8 dereferenceable(8) ptr @_ZNSolsEPFRSoS_E(ptr noundef nonnull align 8 dereferenceable(8) %30, ptr noundef @_ZSt4endlIcSt11char_traitsIcEERSt13basic_ostreamIT_T0_ES6_)
          to label %33 unwind label %25

33:                                               ; preds = %31
  store i32 1, ptr %1, align 4
  store i32 1, ptr %6, align 4
  br label %34

34:                                               ; preds = %33, %24
  call void @_ZN32pxrInternal_v0_24__pxrReserved__11TfErrorMarkD1Ev(ptr noundef nonnull align 8 dereferenceable(8) %2) #3
  %35 = load i32, ptr %1, align 4
  ret i32 %35

36:                                               ; preds = %25
  %37 = load ptr, ptr %3, align 8
  %38 = load i32, ptr %4, align 4
  %39 = insertvalue { ptr, i32 } poison, ptr %37, 0
  %40 = insertvalue { ptr, i32 } %39, i32 %38, 1
  resume { ptr, i32 } %40
}